target datalayout = "e-m:e-p270:32:32-p271:32:32-p272:64:64-i64:64-i128:128-f80:128-n8:16:32:64-S128"
target triple = "x86_64-pc-linux-gnu"

@col0 = internal global i32 1, align 4
@lineno = internal global i32 1, align 4

; Function Attrs: nounwind uwtable
define internal i32 @eol(ptr noundef %0) #0 {
  %2 = alloca i32, align 4
  %3 = alloca ptr, align 8
  %4 = alloca i32, align 4
  %5 = alloca i32, align 4
  store ptr %0, ptr %3, align 8, !tbaa !11
  call void @llvm.lifetime.start.p0(i64 4, ptr %4) #12
  br label %6

6:                                                ; preds = %15, %1
  %7 = load ptr, ptr %3, align 8, !tbaa !11
  %8 = call i32 @getc(ptr noundef %7)
  store i32 %8, ptr %4, align 4, !tbaa !8
  %9 = icmp ne i32 %8, 10
  br i1 %9, label %10, label %16

10:                                               ; preds = %6
  %11 = load i32, ptr %4, align 4, !tbaa !8
  %12 = icmp slt i32 %11, 0
  br i1 %12, label %13, label %15

13:                                               ; preds = %10
  %14 = load i32, ptr %4, align 4, !tbaa !8
  store i32 %14, ptr %2, align 4
  store i32 1, ptr %5, align 4
  br label %20

15:                                               ; preds = %10
  br label %6, !llvm.loop !42

16:                                               ; preds = %6
  %17 = load i32, ptr @lineno, align 4, !tbaa !8
  %18 = add nsw i32 %17, 1
  store i32 %18, ptr @lineno, align 4, !tbaa !8
  store i32 1, ptr @col0, align 4, !tbaa !8
  %19 = load i32, ptr %4, align 4, !tbaa !8
  store i32 %19, ptr %2, align 4
  store i32 1, ptr %5, align 4
  br label %20

20:                                               ; preds = %16, %13
  call void @llvm.lifetime.end.p0(i64 4, ptr %4) #12
  %21 = load i32, ptr %2, align 4
  ret i32 %21
}

; Function Attrs: nounwind uwtable
define internal i32 @readc(ptr noundef %0, ptr noundef %1) #0 {
  %3 = alloca i32, align 4
  %4 = alloca ptr, align 8
  %5 = alloca ptr, align 8
  %6 = alloca i32, align 4
  %7 = alloca i32, align 4
  %8 = alloca i32, align 4
  store ptr %0, ptr %4, align 8, !tbaa !11
  store ptr %1, ptr %5, align 8, !tbaa !10
  call void @llvm.lifetime.start.p0(i64 4, ptr %6) #12
  call void @llvm.lifetime.start.p0(i64 4, ptr %7) #12
  %9 = load ptr, ptr %4, align 8, !tbaa !11
  %10 = call i32 @getc(ptr noundef %9)
  store i32 %10, ptr %6, align 4, !tbaa !8
  switch i32 %10, label %77 [
    i32 10, label %11
    i32 35, label %14
    i32 47, label %22
  ]

11:                                               ; preds = %2
  %12 = load i32, ptr @lineno, align 4, !tbaa !8
  %13 = add nsw i32 %12, 1
  store i32 %13, ptr @lineno, align 4, !tbaa !8
  store i32 1, ptr @col0, align 4, !tbaa !8
  br label %78

14:                                               ; preds = %2
  %15 = load i32, ptr @col0, align 4, !tbaa !8
  %16 = icmp ne i32 %15, 0
  br i1 %16, label %17, label %20

17:                                               ; preds = %14
  %18 = load ptr, ptr %4, align 8, !tbaa !11
  %19 = call i32 @eol(ptr noundef %18)
  store i32 %19, ptr %6, align 4, !tbaa !8
  br label %21

20:                                               ; preds = %14
  store i32 0, ptr @col0, align 4, !tbaa !8
  br label %21

21:                                               ; preds = %20, %17
  br label %78

22:                                               ; preds = %2
  %23 = load ptr, ptr %4, align 8, !tbaa !11
  %24 = call i32 @getc(ptr noundef %23)
  store i32 %24, ptr %7, align 4, !tbaa !8
  %25 = load i32, ptr %7, align 4, !tbaa !8
  switch i32 %25, label %68 [
    i32 42, label %26
    i32 47, label %65
  ]

26:                                               ; preds = %22
  br label %27

27:                                               ; preds = %64, %26
  br label %28

28:                                               ; preds = %27
  %29 = load ptr, ptr %4, align 8, !tbaa !11
  %30 = call i32 @getc(ptr noundef %29)
  store i32 %30, ptr %6, align 4, !tbaa !8
  switch i32 %30, label %64 [
    i32 10, label %31
    i32 42, label %42
  ]

31:                                               ; preds = %28
  %32 = load i32, ptr @lineno, align 4, !tbaa !8
  %33 = add nsw i32 %32, 1
  store i32 %33, ptr @lineno, align 4, !tbaa !8
  %34 = load ptr, ptr %5, align 8, !tbaa !10
  %35 = icmp ne ptr %34, null
  br i1 %35, label %36, label %41

36:                                               ; preds = %31
  %37 = load ptr, ptr %5, align 8, !tbaa !10
  %38 = load i32, ptr %6, align 4, !tbaa !8
  %39 = trunc i32 %38 to i8
  %40 = call i32 @agxbputc(ptr noundef %37, i8 noundef signext %39)
  br label %41

41:                                               ; preds = %36, %31
  br label %64

42:                                               ; preds = %28
  %43 = load ptr, ptr %4, align 8, !tbaa !11
  %44 = call i32 @getc(ptr noundef %43)
  store i32 %44, ptr %7, align 4, !tbaa !8
  switch i32 %44, label %63 [
    i32 -1, label %45
    i32 10, label %47
    i32 42, label %58
    i32 47, label %62
  ]

45:                                               ; preds = %42
  %46 = load i32, ptr %7, align 4, !tbaa !8
  store i32 %46, ptr %3, align 4
  store i32 1, ptr %8, align 4
  br label %80

47:                                               ; preds = %42
  %48 = load i32, ptr @lineno, align 4, !tbaa !8
  %49 = add nsw i32 %48, 1
  store i32 %49, ptr @lineno, align 4, !tbaa !8
  %50 = load ptr, ptr %5, align 8, !tbaa !10
  %51 = icmp ne ptr %50, null
  br i1 %51, label %52, label %57

52:                                               ; preds = %47
  %53 = load ptr, ptr %5, align 8, !tbaa !10
  %54 = load i32, ptr %7, align 4, !tbaa !8
  %55 = trunc i32 %54 to i8
  %56 = call i32 @agxbputc(ptr noundef %53, i8 noundef signext %55)
  br label %57

57:                                               ; preds = %52, %47
  br label %63

58:                                               ; preds = %42
  %59 = load i32, ptr %7, align 4, !tbaa !8
  %60 = load ptr, ptr %4, align 8, !tbaa !11
  %61 = call i32 @ungetc(i32 noundef %59, ptr noundef %60)
  br label %63

62:                                               ; preds = %42
  store i32 0, ptr @col0, align 4, !tbaa !8
  store i32 32, ptr %3, align 4
  store i32 1, ptr %8, align 4
  br label %80

63:                                               ; preds = %42, %58, %57
  br label %64

64:                                               ; preds = %63, %28, %41
  br label %27

65:                                               ; preds = %22
  %66 = load ptr, ptr %4, align 8, !tbaa !11
  %67 = call i32 @eol(ptr noundef %66)
  store i32 %67, ptr %6, align 4, !tbaa !8
  br label %76

68:                                               ; preds = %22
  %69 = load i32, ptr %7, align 4, !tbaa !8
  %70 = icmp sge i32 %69, 0
  br i1 %70, label %71, label %75

71:                                               ; preds = %68
  %72 = load i32, ptr %7, align 4, !tbaa !8
  %73 = load ptr, ptr %4, align 8, !tbaa !11
  %74 = call i32 @ungetc(i32 noundef %72, ptr noundef %73)
  br label %75

75:                                               ; preds = %71, %68
  br label %76

76:                                               ; preds = %75, %65
  br label %78

77:                                               ; preds = %2
  store i32 0, ptr @col0, align 4, !tbaa !8
  br label %78

78:                                               ; preds = %77, %76, %21, %11
  %79 = load i32, ptr %6, align 4, !tbaa !8
  store i32 %79, ptr %3, align 4
  store i32 1, ptr %8, align 4
  br label %80

80:                                               ; preds = %78, %62, %45
  call void @llvm.lifetime.end.p0(i64 4, ptr %7) #12
  call void @llvm.lifetime.end.p0(i64 4, ptr %6) #12
  %81 = load i32, ptr %3, align 4
  ret i32 %81
}