; Function Attrs: nounwind uwtable
define internal fastcc noundef i32 @readc(ptr noundef nonnull captures(none) %0, ptr noundef captures(address_is_null) %1) unnamed_addr #0 {
  %3 = tail call i32 @getc(ptr noundef nonnull %0)
  switch i32 %3, label %49 [
    i32 10, label %4
    i32 35, label %7
    i32 47, label %15
  ]

4:                                                ; preds = %2
  %5 = load i32, ptr @lineno, align 4, !tbaa !3
  %6 = add nsw i32 %5, 1
  store i32 %6, ptr @lineno, align 4, !tbaa !3
  store i1 false, ptr @col0, align 4
  br label %eol.exit

7:                                                ; preds = %2
  %.b = load i1, ptr @col0, align 4
  br i1 %.b, label %14, label %.preheader

.preheader:                                       ; preds = %7, %9
  %8 = tail call i32 @getc(ptr noundef nonnull %0)
  %.not.i = icmp eq i32 %8, 10
  br i1 %.not.i, label %11, label %9

9:                                                ; preds = %.preheader
  %10 = icmp slt i32 %8, 0
  br i1 %10, label %eol.exit, label %.preheader, !llvm.loop !33

11:                                               ; preds = %.preheader
  %12 = load i32, ptr @lineno, align 4, !tbaa !3
  %13 = add nsw i32 %12, 1
  store i32 %13, ptr @lineno, align 4, !tbaa !3
  store i1 false, ptr @col0, align 4
  br label %eol.exit

14:                                               ; preds = %7
  store i1 true, ptr @col0, align 4
  br label %eol.exit

15:                                               ; preds = %2
  %16 = tail call i32 @getc(ptr noundef nonnull %0)
  switch i32 %16, label %45 [
    i32 42, label %.preheader32
    i32 47, label %.preheader34
  ]

.preheader32:                                     ; preds = %15
  %.not = icmp eq ptr %1, null
  br i1 %.not, label %.preheader32.split.us.split.us, label %.preheader32.split.split

.preheader32.split.us.split.us:                   ; preds = %.preheader32, %.preheader32.split.us.split.us.backedge
  %17 = tail call i32 @getc(ptr noundef nonnull %0)
  switch i32 %17, label %.preheader32.split.us.split.us.backedge [
    i32 10, label %25
    i32 42, label %18
  ]

18:                                               ; preds = %.preheader32.split.us.split.us
  %19 = tail call i32 @getc(ptr noundef nonnull %0)
  switch i32 %19, label %.preheader32.split.us.split.us.backedge [
    i32 -1, label %eol.exit
    i32 10, label %22
    i32 42, label %20
    i32 47, label %.split.us
  ]

20:                                               ; preds = %18
  %21 = tail call i32 @ungetc(i32 noundef 42, ptr noundef nonnull %0)
  br label %.preheader32.split.us.split.us.backedge

22:                                               ; preds = %18
  %23 = load i32, ptr @lineno, align 4, !tbaa !3
  %24 = add nsw i32 %23, 1
  store i32 %24, ptr @lineno, align 4, !tbaa !3
  br label %.preheader32.split.us.split.us.backedge

25:                                               ; preds = %.preheader32.split.us.split.us
  %26 = load i32, ptr @lineno, align 4, !tbaa !3
  %27 = add nsw i32 %26, 1
  store i32 %27, ptr @lineno, align 4, !tbaa !3
  br label %.preheader32.split.us.split.us.backedge

.preheader32.split.us.split.us.backedge:          ; preds = %25, %22, %20, %18, %.preheader32.split.us.split.us
  br label %.preheader32.split.us.split.us

.preheader32.split.split:                         ; preds = %.preheader32, %.preheader32.split.split.backedge
  %28 = tail call i32 @getc(ptr noundef nonnull %0)
  switch i32 %28, label %.preheader32.split.split.backedge [
    i32 10, label %29
    i32 42, label %32
  ]

29:                                               ; preds = %.preheader32.split.split
  %30 = load i32, ptr @lineno, align 4, !tbaa !3
  %31 = add nsw i32 %30, 1
  store i32 %31, ptr @lineno, align 4, !tbaa !3
  tail call fastcc void @agxbputc(ptr noundef %1, i8 noundef signext 10)
  br label %.preheader32.split.split.backedge

32:                                               ; preds = %.preheader32.split.split
  %33 = tail call i32 @getc(ptr noundef nonnull %0)
  switch i32 %33, label %.preheader32.split.split.backedge [
    i32 -1, label %eol.exit
    i32 10, label %34
    i32 42, label %37
    i32 47, label %.split.us
  ]

.preheader32.split.split.backedge:                ; preds = %32, %37, %34, %29, %.preheader32.split.split
  br label %.preheader32.split.split

34:                                               ; preds = %32
  %35 = load i32, ptr @lineno, align 4, !tbaa !3
  %36 = add nsw i32 %35, 1
  store i32 %36, ptr @lineno, align 4, !tbaa !3
  tail call fastcc void @agxbputc(ptr noundef %1, i8 noundef signext 10)
  br label %.preheader32.split.split.backedge

37:                                               ; preds = %32
  %38 = tail call i32 @ungetc(i32 noundef 42, ptr noundef nonnull %0)
  br label %.preheader32.split.split.backedge

.split.us:                                        ; preds = %32, %18
  store i1 true, ptr @col0, align 4
  br label %eol.exit

.preheader34:                                     ; preds = %15, %40
  %39 = tail call i32 @getc(ptr noundef nonnull %0)
  %.not.i30 = icmp eq i32 %39, 10
  br i1 %.not.i30, label %42, label %40

40:                                               ; preds = %.preheader34
  %41 = icmp slt i32 %39, 0
  br i1 %41, label %eol.exit, label %.preheader34, !llvm.loop !33

42:                                               ; preds = %.preheader34
  %43 = load i32, ptr @lineno, align 4, !tbaa !3
  %44 = add nsw i32 %43, 1
  store i32 %44, ptr @lineno, align 4, !tbaa !3
  store i1 false, ptr @col0, align 4
  br label %eol.exit

45:                                               ; preds = %15
  %46 = icmp sgt i32 %16, -1
  br i1 %46, label %47, label %eol.exit

47:                                               ; preds = %45
  %48 = tail call i32 @ungetc(i32 noundef %16, ptr noundef nonnull %0)
  br label %eol.exit

49:                                               ; preds = %2
  store i1 true, ptr @col0, align 4
  br label %eol.exit

eol.exit:                                         ; preds = %40, %32, %18, %9, %42, %11, %4, %49, %14, %45, %47, %.split.us
  %.020 = phi i32 [ 32, %.split.us ], [ %3, %49 ], [ 47, %47 ], [ 47, %45 ], [ 35, %14 ], [ 10, %4 ], [ 10, %11 ], [ 10, %42 ], [ %8, %9 ], [ %19, %18 ], [ %33, %32 ], [ %39, %40 ]
  ret i32 %.020
}